; ModuleID = '47/986.c'
source_filename = "47/986.c"
target datalayout = "e-m:e-p270:32:32-p271:32:32-p272:64:64-i64:64-f80:128-n8:16:32:64-S128"
target triple = "x86_64-pc-linux-gnu"

@.str = private unnamed_addr constant [3 x i8] c"%d\00", align 1
@.str.1 = private unnamed_addr constant [4 x i8] c"%d \00", align 1

; Function Attrs: noinline nounwind uwtable
define dso_local i32 @main() #0 {
  %1 = alloca i32, align 4
  %2 = alloca [100 x i32], align 16
  %3 = alloca i32, align 4
  %4 = alloca i32, align 4
  %5 = alloca i32, align 4
  %6 = alloca i32, align 4
  %7 = alloca i32, align 4
  %8 = alloca i32, align 4
  store i32 0, i32* %1, align 4
  %9 = call i32 (i8*, ...) @__isoc99_scanf(i8* getelementptr inbounds ([3 x i8], [3 x i8]* @.str, i64 0, i64 0), i32* %3)
  store i32 0, i32* %7, align 4
  br label %10

10:                                               ; preds = %19, %0
  %11 = load i32, i32* %7, align 4
  %12 = load i32, i32* %3, align 4
  %13 = icmp slt i32 %11, %12
  br i1 %13, label %14, label %22

14:                                               ; preds = %10
  %15 = load i32, i32* %7, align 4
  %16 = sext i32 %15 to i64
  %17 = getelementptr inbounds [100 x i32], [100 x i32]* %2, i64 0, i64 %16
  %18 = call i32 (i8*, ...) @__isoc99_scanf(i8* getelementptr inbounds ([3 x i8], [3 x i8]* @.str, i64 0, i64 0), i32* %17)
  br label %19

19:                                               ; preds = %14
  %20 = load i32, i32* %7, align 4
  %21 = add nsw i32 %20, 1
  store i32 %21, i32* %7, align 4
  br label %10

22:                                               ; preds = %10
  %23 = load i32, i32* %3, align 4
  %24 = sub nsw i32 %23, 1
  store i32 %24, i32* %5, align 4
  store i32 0, i32* %6, align 4
  br label %25

25:                                               ; preds = %29, %22
  %26 = load i32, i32* %6, align 4
  %27 = load i32, i32* %5, align 4
  %28 = icmp slt i32 %26, %27
  br i1 %28, label %29, label %49

29:                                               ; preds = %25
  %30 = load i32, i32* %6, align 4
  %31 = sext i32 %30 to i64
  %32 = getelementptr inbounds [100 x i32], [100 x i32]* %2, i64 0, i64 %31
  %33 = load i32, i32* %32, align 4
  store i32 %33, i32* %4, align 4
  %34 = load i32, i32* %5, align 4
  %35 = sext i32 %34 to i64
  %36 = getelementptr inbounds [100 x i32], [100 x i32]* %2, i64 0, i64 %35
  %37 = load i32, i32* %36, align 4
  %38 = load i32, i32* %6, align 4
  %39 = sext i32 %38 to i64
  %40 = getelementptr inbounds [100 x i32], [100 x i32]* %2, i64 0, i64 %39
  store i32 %37, i32* %40, align 4
  %41 = load i32, i32* %4, align 4
  %42 = load i32, i32* %5, align 4
  %43 = sext i32 %42 to i64
  %44 = getelementptr inbounds [100 x i32], [100 x i32]* %2, i64 0, i64 %43
  store i32 %41, i32* %44, align 4
  %45 = load i32, i32* %6, align 4
  %46 = add nsw i32 %45, 1
  store i32 %46, i32* %6, align 4
  %47 = load i32, i32* %5, align 4
  %48 = sub nsw i32 %47, 1
  store i32 %48, i32* %5, align 4
  br label %25

49:                                               ; preds = %25
  store i32 0, i32* %8, align 4
  br label %50

50:                                               ; preds = %61, %49
  %51 = load i32, i32* %8, align 4
  %52 = load i32, i32* %3, align 4
  %53 = sub nsw i32 %52, 1
  %54 = icmp slt i32 %51, %53
  br i1 %54, label %55, label %64

55:                                               ; preds = %50
  %56 = load i32, i32* %8, align 4
  %57 = sext i32 %56 to i64
  %58 = getelementptr inbounds [100 x i32], [100 x i32]* %2, i64 0, i64 %57
  %59 = load i32, i32* %58, align 4
  %60 = call i32 (i8*, ...) @printf(i8* getelementptr inbounds ([4 x i8], [4 x i8]* @.str.1, i64 0, i64 0), i32 %59)
  br label %61

61:                                               ; preds = %55
  %62 = load i32, i32* %8, align 4
  %63 = add nsw i32 %62, 1
  store i32 %63, i32* %8, align 4
  br label %50

64:                                               ; preds = %50
  %65 = load i32, i32* %3, align 4
  %66 = sub nsw i32 %65, 1
  %67 = sext i32 %66 to i64
  %68 = getelementptr inbounds [100 x i32], [100 x i32]* %2, i64 0, i64 %67
  %69 = load i32, i32* %68, align 4
  %70 = call i32 (i8*, ...) @printf(i8* getelementptr inbounds ([3 x i8], [3 x i8]* @.str, i64 0, i64 0), i32 %69)
  ret i32 0
}

declare dso_local i32 @__isoc99_scanf(i8*, ...) #1

declare dso_local i32 @printf(i8*, ...) #1


!llvm.module.flags = !{!0}
!llvm.ident = !{!1}

!0 = !{i32 1, !"wchar_size", i32 4}
!1 = !{!"clang version 10.0.0-4ubuntu1 "}
